target datalayout = "e-m:e-p270:32:32-p271:32:32-p272:64:64-i64:64-i128:128-f80:128-n8:16:32:64-S128"
target triple = "x86_64-pc-linux-gnu"

; Function Attrs: nounwind uwtable
define i32 @ff_get_guid(ptr noundef %0, ptr noundef %1) #0 {
  %3 = alloca i32, align 4
  %4 = alloca ptr, align 8
  %5 = alloca ptr, align 8
  %6 = alloca i32, align 4
  %7 = alloca i32, align 4
  store ptr %0, ptr %4, align 8, !tbaa !4
  store ptr %1, ptr %5, align 8, !tbaa !9
  call void @llvm.lifetime.start.p0(i64 4, ptr %6) #6
  br label %8

8:                                                ; preds = %2
  br label %9

9:                                                ; preds = %8
  br label %10

10:                                               ; preds = %9
  %11 = load ptr, ptr %4, align 8, !tbaa !4
  %12 = load ptr, ptr %5, align 8, !tbaa !9
  %13 = getelementptr inbounds [16 x i8], ptr %12, i64 0, i64 0
  %14 = call i32 @ffio_read_size(ptr noundef %11, ptr noundef %13, i32 noundef 16)
  store i32 %14, ptr %6, align 4, !tbaa !11
  %15 = load i32, ptr %6, align 4, !tbaa !11
  %16 = icmp slt i32 %15, 0
  br i1 %16, label %17, label %21

17:                                               ; preds = %10
  %18 = load ptr, ptr %5, align 8, !tbaa !9
  %19 = getelementptr inbounds [16 x i8], ptr %18, i64 0, i64 0
  call void @llvm.memset.p0.i64(ptr align 1 %19, i8 0, i64 16, i1 false)
  %20 = load i32, ptr %6, align 4, !tbaa !11
  store i32 %20, ptr %3, align 4
  store i32 1, ptr %7, align 4
  br label %22

21:                                               ; preds = %10
  store i32 0, ptr %3, align 4
  store i32 1, ptr %7, align 4
  br label %22

22:                                               ; preds = %21, %17
  call void @llvm.lifetime.end.p0(i64 4, ptr %6) #6
  %23 = load i32, ptr %3, align 4
  ret i32 %23
}