; Function Attrs: nounwind uwtable
define range(i32 -2147483648, 1) i32 @ff_get_guid(ptr noundef %0, ptr noundef %1) local_unnamed_addr #0 {
  %3 = tail call i32 @ffio_read_size(ptr noundef %0, ptr noundef %1, i32 noundef 16) #7
  %4 = icmp slt i32 %3, 0
  br i1 %4, label %5, label %6

5:                                                ; preds = %2
  tail call void @llvm.memset.p0.i64(ptr noundef nonnull align 1 dereferenceable(16) %1, i8 0, i64 16, i1 false)
  br label %6

6:                                                ; preds = %2, %5
  %.0 = phi i32 [ %3, %5 ], [ 0, %2 ]
  ret i32 %.0
}